; Function Attrs: mustprogress nounwind uwtable
define dso_local noundef zeroext i1 @_ZNK5clang4ento15CallDescription7matchesERKNS0_9CallEventE(ptr noundef nonnull align 8 dereferenceable(60) %0, ptr noundef nonnull align 8 dereferenceable(72) %1) local_unnamed_addr #0 align 2 {
  %3 = load ptr, ptr %1, align 8
  %4 = getelementptr inbounds i8, ptr %3, i64 32
  %5 = load ptr, ptr %4, align 8
  %6 = tail call noundef i32 %5(ptr noundef nonnull align 8 dereferenceable(72) %1) #13
  %7 = icmp eq i32 %6, 10
  br i1 %7, label %_ZN4llvm16dyn_cast_or_nullIN5clang12FunctionDeclEKNS1_4DeclEEEDaPT0_.exit.thread, label %8

8:                                                ; preds = %2
  %9 = load ptr, ptr %1, align 8
  %10 = getelementptr inbounds i8, ptr %9, i64 48
  %11 = load ptr, ptr %10, align 8
  %12 = tail call noundef ptr %11(ptr noundef nonnull align 8 dereferenceable(72) %1) #13
  %.not.i.i = icmp eq ptr %12, null
  br i1 %.not.i.i, label %_ZN4llvm16dyn_cast_or_nullIN5clang12FunctionDeclEKNS1_4DeclEEEDaPT0_.exit.thread, label %13

13:                                               ; preds = %8
  %14 = getelementptr inbounds nuw i8, ptr %12, i64 28
  %15 = load i32, ptr %14, align 4
  %16 = and i32 %15, 127
  %17 = add nsw i32 %16, -31
  %18 = icmp ult i32 %17, 6
  br i1 %18, label %_ZN4llvm16dyn_cast_or_nullIN5clang12FunctionDeclEKNS1_4DeclEEEDaPT0_.exit, label %_ZN4llvm16dyn_cast_or_nullIN5clang12FunctionDeclEKNS1_4DeclEEEDaPT0_.exit.thread

_ZN4llvm16dyn_cast_or_nullIN5clang12FunctionDeclEKNS1_4DeclEEEDaPT0_.exit: ; preds = %13
  %19 = load ptr, ptr %1, align 8
  %20 = getelementptr inbounds i8, ptr %19, i64 72
  %21 = load ptr, ptr %20, align 8
  %22 = tail call noundef i32 %21(ptr noundef nonnull align 8 dereferenceable(72) %1) #13
  %23 = zext i32 %22 to i64
  %24 = load ptr, ptr %1, align 8
  %25 = getelementptr inbounds i8, ptr %24, i64 144
  %26 = load ptr, ptr %25, align 8
  %27 = tail call { ptr, i64 } %26(ptr noundef nonnull align 8 dereferenceable(72) %1) #13
  %28 = extractvalue { ptr, i64 } %27, 1
  %29 = tail call noundef zeroext i1 @_ZNK5clang4ento15CallDescription11matchesImplEPKNS_12FunctionDeclEmm(ptr noundef nonnull align 8 dereferenceable(60) %0, ptr noundef nonnull %12, i64 noundef %23, i64 noundef %28)
  br label %_ZN4llvm16dyn_cast_or_nullIN5clang12FunctionDeclEKNS1_4DeclEEEDaPT0_.exit.thread

_ZN4llvm16dyn_cast_or_nullIN5clang12FunctionDeclEKNS1_4DeclEEEDaPT0_.exit.thread: ; preds = %8, %13, %2, %_ZN4llvm16dyn_cast_or_nullIN5clang12FunctionDeclEKNS1_4DeclEEEDaPT0_.exit
  %.0 = phi i1 [ %29, %_ZN4llvm16dyn_cast_or_nullIN5clang12FunctionDeclEKNS1_4DeclEEEDaPT0_.exit ], [ false, %2 ], [ false, %13 ], [ false, %8 ]
  ret i1 %.0
}